target datalayout = "e-m:e-p270:32:32-p271:32:32-p272:64:64-i64:64-i128:128-f80:128-n8:16:32:64-S128"
target triple = "x86_64-pc-linux-gnu"

%"class.pybind11::object" = type { %"class.pybind11::handle" }
%"class.pybind11::handle" = type { ptr }
%"class.pybind11::class_" = type { %"class.pybind11::detail::generic_type" }
%"class.pybind11::detail::generic_type" = type { %"class.pybind11::object" }
%"class.pybind11::enum_" = type { %"class.pybind11::class_.1", %"struct.pybind11::detail::enum_base" }
%"class.pybind11::class_.1" = type { %"class.pybind11::detail::generic_type" }
%"struct.pybind11::detail::enum_base" = type { %"class.pybind11::handle", %"class.pybind11::handle" }

@.str = private unnamed_addr constant [7 x i8] c"Device\00", align 1
@.str.3 = private unnamed_addr constant [53 x i8] c"Device context specifying device type and device id.\00", align 1
@.str.4 = private unnamed_addr constant [11 x i8] c"DeviceType\00", align 1
@.str.5 = private unnamed_addr constant [4 x i8] c"CPU\00", align 1
@.str.6 = private unnamed_addr constant [5 x i8] c"CUDA\00", align 1
@.str.7 = private unnamed_addr constant [5 x i8] c"SYCL\00", align 1

; Function Attrs: mustprogress ssp uwtable
define linkonce_odr hidden noundef nonnull align 8 dereferenceable(24) ptr @_ZN8pybind115enum_IN6open3d4core6Device10DeviceTypeEE13export_valuesEv(ptr noundef nonnull align 8 dereferenceable(24) %0) #4 comdat align 2 !type !174 {
  %2 = alloca ptr, align 8
  store ptr %0, ptr %2, align 8, !tbaa !166
  %3 = load ptr, ptr %2, align 8
  %4 = getelementptr inbounds nuw %"class.pybind11::enum_", ptr %3, i32 0, i32 1
  call void @_ZN8pybind116detail9enum_base13export_valuesEv(ptr noundef nonnull align 8 dereferenceable(16) %4)
  ret ptr %3
}

; Function Attrs: mustprogress ssp uwtable
define hidden void @_ZN6open3d4core31pybind_core_device_declarationsERN8pybind117module_E(ptr noundef nonnull align 8 dereferenceable(8) %0) #4 personality ptr @__gxx_personality_v0 {
  %2 = alloca ptr, align 8
  %3 = alloca %"class.pybind11::class_", align 8
  %4 = alloca %"class.pybind11::handle", align 8
  %5 = alloca %"class.pybind11::enum_", align 8
  %6 = alloca ptr, align 8
  %7 = alloca i32, align 4
  store ptr %0, ptr %2, align 8, !tbaa !149
  call void @llvm.lifetime.start.p0(i64 8, ptr %3) #25
  %8 = load ptr, ptr %2, align 8, !tbaa !149
  call void @llvm.memcpy.p0.p0.i64(ptr align 8 %4, ptr align 8 %8, i64 8, i1 false)
  %9 = getelementptr inbounds nuw %"class.pybind11::handle", ptr %4, i32 0, i32 0
  %10 = load ptr, ptr %9, align 8
  call void @_ZN8pybind116class_IN6open3d4core6DeviceEJEEC2IJA53_cEEENS_6handleEPKcDpRKT_(ptr noundef nonnull align 8 dereferenceable(8) %3, ptr %10, ptr noundef @.str, ptr noundef nonnull align 1 dereferenceable(53) @.str.3)
  call void @llvm.lifetime.start.p0(i64 24, ptr %5) #25
  invoke void @_ZN8pybind115enum_IN6open3d4core6Device10DeviceTypeEEC2IJEEERKNS_6handleEPKcDpRKT_(ptr noundef nonnull align 8 dereferenceable(24) %5, ptr noundef nonnull align 8 dereferenceable(8) %3, ptr noundef @.str.4)
          to label %11 unwind label %20

11:                                               ; preds = %1
  %12 = invoke noundef nonnull align 8 dereferenceable(24) ptr @_ZN8pybind115enum_IN6open3d4core6Device10DeviceTypeEE5valueEPKcS4_S7_(ptr noundef nonnull align 8 dereferenceable(24) %5, ptr noundef @.str.5, i32 noundef 0, ptr noundef null)
          to label %13 unwind label %24

13:                                               ; preds = %11
  %14 = invoke noundef nonnull align 8 dereferenceable(24) ptr @_ZN8pybind115enum_IN6open3d4core6Device10DeviceTypeEE5valueEPKcS4_S7_(ptr noundef nonnull align 8 dereferenceable(24) %12, ptr noundef @.str.6, i32 noundef 1, ptr noundef null)
          to label %15 unwind label %24

15:                                               ; preds = %13
  %16 = invoke noundef nonnull align 8 dereferenceable(24) ptr @_ZN8pybind115enum_IN6open3d4core6Device10DeviceTypeEE5valueEPKcS4_S7_(ptr noundef nonnull align 8 dereferenceable(24) %14, ptr noundef @.str.7, i32 noundef 2, ptr noundef null)
          to label %17 unwind label %24

17:                                               ; preds = %15
  %18 = invoke noundef nonnull align 8 dereferenceable(24) ptr @_ZN8pybind115enum_IN6open3d4core6Device10DeviceTypeEE13export_valuesEv(ptr noundef nonnull align 8 dereferenceable(24) %16)
          to label %19 unwind label %24

19:                                               ; preds = %17
  call void @_ZN8pybind116objectD2Ev(ptr noundef nonnull align 8 dereferenceable(24) %5) #25
  call void @llvm.lifetime.end.p0(i64 24, ptr %5) #25
  call void @_ZN8pybind116objectD2Ev(ptr noundef nonnull align 8 dereferenceable(8) %3) #25
  call void @llvm.lifetime.end.p0(i64 8, ptr %3) #25
  ret void

20:                                               ; preds = %1
  %21 = landingpad { ptr, i32 }
          cleanup
  %22 = extractvalue { ptr, i32 } %21, 0
  store ptr %22, ptr %6, align 8
  %23 = extractvalue { ptr, i32 } %21, 1
  store i32 %23, ptr %7, align 4
  br label %28

24:                                               ; preds = %17, %15, %13, %11
  %25 = landingpad { ptr, i32 }
          cleanup
  %26 = extractvalue { ptr, i32 } %25, 0
  store ptr %26, ptr %6, align 8
  %27 = extractvalue { ptr, i32 } %25, 1
  store i32 %27, ptr %7, align 4
  call void @_ZN8pybind116objectD2Ev(ptr noundef nonnull align 8 dereferenceable(24) %5) #25
  br label %28

28:                                               ; preds = %24, %20
  call void @llvm.lifetime.end.p0(i64 24, ptr %5) #25
  call void @_ZN8pybind116objectD2Ev(ptr noundef nonnull align 8 dereferenceable(8) %3) #25
  call void @llvm.lifetime.end.p0(i64 8, ptr %3) #25
  br label %29

29:                                               ; preds = %28
  %30 = load ptr, ptr %6, align 8
  %31 = load i32, ptr %7, align 4
  %32 = insertvalue { ptr, i32 } poison, ptr %30, 0
  %33 = insertvalue { ptr, i32 } %32, i32 %31, 1
  resume { ptr, i32 } %33
}