; Function Attrs: mustprogress ssp uwtable
define hidden void @_ZN6open3d4core31pybind_core_device_declarationsERN8pybind117module_E(ptr noundef nonnull readonly align 8 captures(none) dereferenceable(8) %0) local_unnamed_addr #5 personality ptr @__gxx_personality_v0 {
  %2 = alloca %"class.pybind11::class_", align 8
  %3 = alloca %"class.pybind11::enum_", align 8
  call void @llvm.lifetime.start.p0(i64 8, ptr nonnull %2) #33
  %.sroa.0.0.copyload = load ptr, ptr %0, align 8
  call void @_ZN8pybind116class_IN6open3d4core6DeviceEJEEC2IJA53_cEEENS_6handleEPKcDpRKT_(ptr noundef nonnull align 8 dereferenceable(8) %2, ptr %.sroa.0.0.copyload, ptr noundef nonnull @.str, ptr noundef nonnull align 1 dereferenceable(53) @.str.3)
  call void @llvm.lifetime.start.p0(i64 24, ptr nonnull %3) #33
  invoke void @_ZN8pybind115enum_IN6open3d4core6Device10DeviceTypeEEC2IJEEERKNS_6handleEPKcDpRKT_(ptr noundef nonnull align 8 dereferenceable(24) %3, ptr noundef nonnull align 8 dereferenceable(8) %2, ptr noundef nonnull @.str.4)
          to label %4 unwind label %34

4:                                                ; preds = %1
  %5 = invoke noundef nonnull align 8 dereferenceable(24) ptr @_ZN8pybind115enum_IN6open3d4core6Device10DeviceTypeEE5valueEPKcS4_S7_(ptr noundef nonnull align 8 dereferenceable(24) %3, ptr noundef nonnull @.str.5, i32 noundef 0, ptr noundef null)
          to label %6 unwind label %36

6:                                                ; preds = %4
  %7 = invoke noundef nonnull align 8 dereferenceable(24) ptr @_ZN8pybind115enum_IN6open3d4core6Device10DeviceTypeEE5valueEPKcS4_S7_(ptr noundef nonnull align 8 dereferenceable(24) %5, ptr noundef nonnull @.str.6, i32 noundef 1, ptr noundef null)
          to label %8 unwind label %36

8:                                                ; preds = %6
  %9 = invoke noundef nonnull align 8 dereferenceable(24) ptr @_ZN8pybind115enum_IN6open3d4core6Device10DeviceTypeEE5valueEPKcS4_S7_(ptr noundef nonnull align 8 dereferenceable(24) %7, ptr noundef nonnull @.str.7, i32 noundef 2, ptr noundef null)
          to label %10 unwind label %36

10:                                               ; preds = %8
  %11 = getelementptr inbounds nuw i8, ptr %9, i64 8
  invoke void @_ZN8pybind116detail9enum_base13export_valuesEv(ptr noundef nonnull align 8 dereferenceable(16) %11)
          to label %_ZN8pybind115enum_IN6open3d4core6Device10DeviceTypeEE13export_valuesEv.exit unwind label %36

_ZN8pybind115enum_IN6open3d4core6Device10DeviceTypeEE13export_valuesEv.exit: ; preds = %10
  %12 = load ptr, ptr %3, align 8, !tbaa !136
  %.not.i.i.i = icmp eq ptr %12, null
  br i1 %.not.i.i.i, label %_ZN8pybind116objectD2Ev.exit, label %13

13:                                               ; preds = %_ZN8pybind115enum_IN6open3d4core6Device10DeviceTypeEE13export_valuesEv.exit
  %14 = load i64, ptr %12, align 8, !tbaa !135
  %15 = and i64 %14, 2147483648
  %.not2.i.i.i = icmp eq i64 %15, 0
  br i1 %.not2.i.i.i, label %16, label %_ZN8pybind116objectD2Ev.exit

16:                                               ; preds = %13
  %17 = add nsw i64 %14, -1
  store i64 %17, ptr %12, align 8, !tbaa !135
  %18 = icmp eq i64 %17, 0
  br i1 %18, label %19, label %_ZN8pybind116objectD2Ev.exit

19:                                               ; preds = %16
  invoke void @_Py_Dealloc(ptr noundef nonnull %12)
          to label %_ZN8pybind116objectD2Ev.exit unwind label %20

20:                                               ; preds = %19
  %21 = landingpad { ptr, i32 }
          catch ptr null
  %22 = extractvalue { ptr, i32 } %21, 0
  call void @__clang_call_terminate(ptr %22) #34
  unreachable

_ZN8pybind116objectD2Ev.exit:                     ; preds = %_ZN8pybind115enum_IN6open3d4core6Device10DeviceTypeEE13export_valuesEv.exit, %13, %16, %19
  call void @llvm.lifetime.end.p0(i64 24, ptr nonnull %3) #33
  %23 = load ptr, ptr %2, align 8, !tbaa !136
  %.not.i.i.i4 = icmp eq ptr %23, null
  br i1 %.not.i.i.i4, label %_ZN8pybind116objectD2Ev.exit6, label %24

24:                                               ; preds = %_ZN8pybind116objectD2Ev.exit
  %25 = load i64, ptr %23, align 8, !tbaa !135
  %26 = and i64 %25, 2147483648
  %.not2.i.i.i5 = icmp eq i64 %26, 0
  br i1 %.not2.i.i.i5, label %27, label %_ZN8pybind116objectD2Ev.exit6

27:                                               ; preds = %24
  %28 = add nsw i64 %25, -1
  store i64 %28, ptr %23, align 8, !tbaa !135
  %29 = icmp eq i64 %28, 0
  br i1 %29, label %30, label %_ZN8pybind116objectD2Ev.exit6

30:                                               ; preds = %27
  invoke void @_Py_Dealloc(ptr noundef nonnull %23)
          to label %_ZN8pybind116objectD2Ev.exit6 unwind label %31

31:                                               ; preds = %30
  %32 = landingpad { ptr, i32 }
          catch ptr null
  %33 = extractvalue { ptr, i32 } %32, 0
  call void @__clang_call_terminate(ptr %33) #34
  unreachable

_ZN8pybind116objectD2Ev.exit6:                    ; preds = %_ZN8pybind116objectD2Ev.exit, %24, %27, %30
  call void @llvm.lifetime.end.p0(i64 8, ptr nonnull %2) #33
  ret void

34:                                               ; preds = %1
  %35 = landingpad { ptr, i32 }
          cleanup
  br label %38

36:                                               ; preds = %10, %8, %6, %4
  %37 = landingpad { ptr, i32 }
          cleanup
  call void @_ZN8pybind116objectD2Ev(ptr noundef nonnull align 8 dereferenceable(24) %3) #33
  br label %38

38:                                               ; preds = %36, %34
  %.pn = phi { ptr, i32 } [ %37, %36 ], [ %35, %34 ]
  call void @llvm.lifetime.end.p0(i64 24, ptr nonnull %3) #33
  call void @_ZN8pybind116objectD2Ev(ptr noundef nonnull align 8 dereferenceable(8) %2) #33
  call void @llvm.lifetime.end.p0(i64 8, ptr nonnull %2) #33
  resume { ptr, i32 } %.pn
}